target datalayout = "e-m:e-p270:32:32-p271:32:32-p272:64:64-i64:64-i128:128-f80:128-n8:16:32:64-S128"
target triple = "x86_64-pc-linux-gnu"

%struct._fvalue_t = type { ptr, %union.anon.1 }
%union.anon.1 = type { %struct._protocol_value_t }
%struct._protocol_value_t = type { ptr, i32, ptr, i8 }

; Function Attrs: null_pointer_is_valid sspstrong uwtable
define internal ptr @value_get(ptr noundef %0) #0 {
  %2 = alloca ptr, align 8
  %3 = alloca ptr, align 8
  store ptr %0, ptr %3, align 8
  %4 = load ptr, ptr %3, align 8
  %5 = getelementptr inbounds nuw %struct._fvalue_t, ptr %4, i32 0, i32 1
  %6 = getelementptr inbounds nuw %struct._protocol_value_t, ptr %5, i32 0, i32 0
  %7 = load ptr, ptr %6, align 8
  %8 = icmp eq ptr %7, null
  br i1 %8, label %9, label %10

9:                                                ; preds = %1
  store ptr null, ptr %2, align 8
  br label %35

10:                                               ; preds = %1
  %11 = load ptr, ptr %3, align 8
  %12 = getelementptr inbounds nuw %struct._fvalue_t, ptr %11, i32 0, i32 1
  %13 = getelementptr inbounds nuw %struct._protocol_value_t, ptr %12, i32 0, i32 1
  %14 = load i32, ptr %13, align 8
  %15 = icmp slt i32 %14, 0
  br i1 %15, label %16, label %21

16:                                               ; preds = %10
  %17 = load ptr, ptr %3, align 8
  %18 = getelementptr inbounds nuw %struct._fvalue_t, ptr %17, i32 0, i32 1
  %19 = getelementptr inbounds nuw %struct._protocol_value_t, ptr %18, i32 0, i32 0
  %20 = load ptr, ptr %19, align 8
  store ptr %20, ptr %2, align 8
  br label %35

21:                                               ; preds = %10
  %22 = load ptr, ptr %3, align 8
  %23 = getelementptr inbounds nuw %struct._fvalue_t, ptr %22, i32 0, i32 1
  %24 = getelementptr inbounds nuw %struct._protocol_value_t, ptr %23, i32 0, i32 0
  %25 = load ptr, ptr %24, align 8
  %26 = load ptr, ptr %3, align 8
  %27 = getelementptr inbounds nuw %struct._fvalue_t, ptr %26, i32 0, i32 1
  %28 = getelementptr inbounds nuw %struct._protocol_value_t, ptr %27, i32 0, i32 1
  %29 = load i32, ptr %28, align 8
  %30 = load ptr, ptr %3, align 8
  %31 = getelementptr inbounds nuw %struct._fvalue_t, ptr %30, i32 0, i32 1
  %32 = getelementptr inbounds nuw %struct._protocol_value_t, ptr %31, i32 0, i32 1
  %33 = load i32, ptr %32, align 8
  %34 = call ptr @tvb_new_subset_length_caplen(ptr noundef %25, i32 noundef 0, i32 noundef %29, i32 noundef %33)
  store ptr %34, ptr %2, align 8
  br label %35

35:                                               ; preds = %21, %16, %9
  %36 = load ptr, ptr %2, align 8
  ret ptr %36
}