; Function Attrs: null_pointer_is_valid sspstrong uwtable
define internal ptr @value_get(ptr noundef readonly captures(none) %0) #0 {
  %2 = getelementptr inbounds nuw i8, ptr %0, i64 8
  %3 = load ptr, ptr %2, align 8
  %4 = icmp eq ptr %3, null
  br i1 %4, label %11, label %5

5:                                                ; preds = %1
  %6 = getelementptr inbounds nuw i8, ptr %0, i64 16
  %7 = load i32, ptr %6, align 8
  %8 = icmp slt i32 %7, 0
  br i1 %8, label %11, label %9

9:                                                ; preds = %5
  %10 = tail call ptr @tvb_new_subset_length_caplen(ptr noundef nonnull %3, i32 noundef 0, i32 noundef %7, i32 noundef %7)
  br label %11

11:                                               ; preds = %5, %1, %9
  %.0 = phi ptr [ %10, %9 ], [ null, %1 ], [ %3, %5 ]
  ret ptr %.0
}